; Function Attrs: mustprogress uwtable
define void @_ZN2cv8UMatData4lockEv(ptr noundef nonnull align 8 dereferenceable(104) %0) local_unnamed_addr #4 align 2 {
  %2 = ptrtoint ptr %0 to i64
  %3 = urem i64 %2, 31
  %4 = getelementptr inbounds nuw [31 x %"class.std::recursive_mutex"], ptr @_ZN2cvL9umatLocksE, i64 0, i64 %3
  %5 = tail call noundef i32 @pthread_mutex_lock(ptr noundef nonnull align 8 dereferenceable(40) %4) #25
  %.not.i = icmp eq i32 %5, 0
  br i1 %.not.i, label %_ZNSt15recursive_mutex4lockEv.exit, label %6

6:                                                ; preds = %1
  tail call void @_ZSt20__throw_system_errori(i32 noundef %5) #26
  unreachable

_ZNSt15recursive_mutex4lockEv.exit:               ; preds = %1
  ret void
}